; Function Attrs: mustprogress nounwind uwtable
define hidden void @_ZN4llvh18raw_string_ostreamD2Ev(ptr nocapture noundef nonnull align 8 dereferenceable(48) %this) unnamed_addr #0 align 2 {
entry:
  store ptr getelementptr inbounds ({ [13 x ptr] }, ptr @_ZTVN4llvh18raw_string_ostreamE, i64 0, i32 0, i64 2), ptr %this, align 8
  %OutBufCur.i = getelementptr inbounds i8, ptr %this, i64 24
  %0 = load ptr, ptr %OutBufCur.i, align 8
  %OutBufStart.i = getelementptr inbounds i8, ptr %this, i64 8
  %1 = load ptr, ptr %OutBufStart.i, align 8
  %cmp.not.i = icmp eq ptr %0, %1
  br i1 %cmp.not.i, label %_ZN4llvh11raw_ostream5flushEv.exit, label %if.then.i

if.then.i:                                        ; preds = %entry
  %sub.ptr.lhs.cast.i.i = ptrtoint ptr %0 to i64
  %sub.ptr.rhs.cast.i.i = ptrtoint ptr %1 to i64
  %sub.ptr.sub.i.i = sub i64 %sub.ptr.lhs.cast.i.i, %sub.ptr.rhs.cast.i.i
  store ptr %1, ptr %OutBufCur.i, align 8
  %OS.i = getelementptr inbounds i8, ptr %this, i64 40
  %2 = load ptr, ptr %OS.i, align 8
  %call.i = tail call noundef nonnull align 8 dereferenceable(32) ptr @_ZNSt7__cxx1112basic_stringIcSt11char_traitsIcESaIcEE6appendEPKcm(ptr noundef nonnull align 8 dereferenceable(32) %2, ptr noundef %1, i64 noundef %sub.ptr.sub.i.i) #26
  br label %_ZN4llvh11raw_ostream5flushEv.exit

_ZN4llvh11raw_ostream5flushEv.exit:               ; preds = %entry, %if.then.i
  store ptr getelementptr inbounds ({ [13 x ptr] }, ptr @_ZTVN4llvh11raw_ostreamE, i64 0, i32 0, i64 2), ptr %this, align 8
  %BufferMode.i = getelementptr inbounds i8, ptr %this, i64 32
  %3 = load i32, ptr %BufferMode.i, align 8
  %cmp.i = icmp eq i32 %3, 1
  br i1 %cmp.i, label %if.then.i1, label %_ZN4llvh11raw_ostreamD2Ev.exit

if.then.i1:                                       ; preds = %_ZN4llvh11raw_ostream5flushEv.exit
  %4 = load ptr, ptr %OutBufStart.i, align 8
  %isnull.i = icmp eq ptr %4, null
  br i1 %isnull.i, label %_ZN4llvh11raw_ostreamD2Ev.exit, label %delete.notnull.i

delete.notnull.i:                                 ; preds = %if.then.i1
  tail call void @_ZdaPv(ptr noundef nonnull %4) #24
  br label %_ZN4llvh11raw_ostreamD2Ev.exit

_ZN4llvh11raw_ostreamD2Ev.exit:                   ; preds = %_ZN4llvh11raw_ostream5flushEv.exit, %if.then.i1, %delete.notnull.i
  ret void
}